target datalayout = "e-m:e-p270:32:32-p271:32:32-p272:64:64-i64:64-i128:128-f80:128-n8:16:32:64-S128"
target triple = "x86_64-pc-linux-gnu"

%class.StubQueue = type { ptr, ptr, i32, i32, i32, i32, i32, ptr }

@_ZN6Thread12_thr_currentE = external thread_local global ptr, align 8
@_ZN19AbstractInterpreter5_codeE = external global ptr, align 8

; Function Attrs: mustprogress nounwind uwtable
define linkonce_odr hidden noundef ptr @_ZN6Thread15current_or_nullEv() #1 comdat align 2 {
  %1 = call align 8 ptr @llvm.threadlocal.address.p0(ptr align 8 @_ZN6Thread12_thr_currentE)
  %2 = load ptr, ptr %1, align 8
  ret ptr %2
}

; Function Attrs: mustprogress nounwind uwtable
define linkonce_odr hidden noundef zeroext i1 @_ZNK9StubQueue8containsEPh(ptr noundef nonnull align 8 dereferenceable(48) %0, ptr noundef %1) #1 comdat align 2 {
  %3 = alloca ptr, align 8
  %4 = alloca ptr, align 8
  store ptr %0, ptr %3, align 8
  store ptr %1, ptr %4, align 8
  %5 = load ptr, ptr %3, align 8
  %6 = getelementptr inbounds %class.StubQueue, ptr %5, i32 0, i32 1
  %7 = load ptr, ptr %6, align 8
  %8 = load ptr, ptr %4, align 8
  %9 = icmp ule ptr %7, %8
  br i1 %9, label %10, label %19

10:                                               ; preds = %2
  %11 = load ptr, ptr %4, align 8
  %12 = getelementptr inbounds %class.StubQueue, ptr %5, i32 0, i32 1
  %13 = load ptr, ptr %12, align 8
  %14 = getelementptr inbounds %class.StubQueue, ptr %5, i32 0, i32 3
  %15 = load i32, ptr %14, align 4
  %16 = sext i32 %15 to i64
  %17 = getelementptr inbounds i8, ptr %13, i64 %16
  %18 = icmp ult ptr %11, %17
  br label %19

19:                                               ; preds = %10, %2
  %20 = phi i1 [ false, %2 ], [ %18, %10 ]
  ret i1 %20
}

; Function Attrs: mustprogress nounwind uwtable
define linkonce_odr hidden noundef ptr @_ZN10JavaThread4castEP6Thread(ptr noundef %0) #1 comdat align 2 {
  %2 = alloca ptr, align 8
  store ptr %0, ptr %2, align 8
  %3 = load ptr, ptr %2, align 8
  ret ptr %3
}

; Function Attrs: mustprogress nounwind uwtable
define linkonce_odr hidden noundef ptr @_ZN6Thread7currentEv() #1 comdat align 2 {
  %1 = alloca ptr, align 8
  %2 = call noundef ptr @_ZN6Thread15current_or_nullEv()
  store ptr %2, ptr %1, align 8
  %3 = load ptr, ptr %1, align 8
  ret ptr %3
}

; Function Attrs: mustprogress nounwind uwtable
define linkonce_odr hidden noundef zeroext i1 @_ZN19TemplateInterpreter8containsEPh(ptr noundef %0) #1 comdat align 2 {
  %2 = alloca ptr, align 8
  store ptr %0, ptr %2, align 8
  %3 = load ptr, ptr @_ZN19AbstractInterpreter5_codeE, align 8
  %4 = icmp ne ptr %3, null
  br i1 %4, label %5, label %9

5:                                                ; preds = %1
  %6 = load ptr, ptr @_ZN19AbstractInterpreter5_codeE, align 8
  %7 = load ptr, ptr %2, align 8
  %8 = call noundef zeroext i1 @_ZNK9StubQueue8containsEPh(ptr noundef nonnull align 8 dereferenceable(48) %6, ptr noundef %7)
  br label %9

9:                                                ; preds = %5, %1
  %10 = phi i1 [ false, %1 ], [ %8, %5 ]
  ret i1 %10
}

; Function Attrs: mustprogress nounwind uwtable
define linkonce_odr hidden noundef ptr @_ZN10JavaThread7currentEv() #1 comdat align 2 {
  %1 = call noundef ptr @_ZN6Thread7currentEv()
  %2 = call noundef ptr @_ZN10JavaThread4castEP6Thread(ptr noundef %1)
  ret ptr %2
}

; Function Attrs: mustprogress nounwind uwtable
define linkonce_odr hidden void @_ZN2os22verify_stack_alignmentEv() #1 comdat align 2 {
  ret void
}

; Function Attrs: mustprogress nounwind uwtable
define hidden noundef i32 @_ZN18InterpreterRuntime20interpreter_containsEPh(ptr noundef %0) #1 align 2 {
  %2 = alloca ptr, align 8
  store ptr %0, ptr %2, align 8
  call void @_ZN2os22verify_stack_alignmentEv()
  %3 = call noundef ptr @_ZN10JavaThread7currentEv()
  %4 = load ptr, ptr %2, align 8
  %5 = call noundef ptr @_ZN12Continuation30get_top_return_pc_post_barrierEP10JavaThreadPh(ptr noundef %3, ptr noundef %4)
  %6 = call noundef zeroext i1 @_ZN19TemplateInterpreter8containsEPh(ptr noundef %5)
  %7 = select i1 %6, i32 1, i32 0
  ret i32 %7
}