; Function Attrs: mustprogress nounwind uwtable
define hidden noundef range(i32 0, 2) i32 @_ZN18InterpreterRuntime20interpreter_containsEPh(ptr noundef %0) local_unnamed_addr #0 align 2 {
  %2 = tail call align 8 ptr @llvm.threadlocal.address.p0(ptr align 8 @_ZN6Thread12_thr_currentE)
  %3 = load ptr, ptr %2, align 8
  %4 = tail call noundef ptr @_ZN12Continuation30get_top_return_pc_post_barrierEP10JavaThreadPh(ptr noundef %3, ptr noundef %0) #13
  %5 = load ptr, ptr @_ZN19AbstractInterpreter5_codeE, align 8
  %.not.i = icmp eq ptr %5, null
  br i1 %.not.i, label %_ZN19TemplateInterpreter8containsEPh.exit, label %6

6:                                                ; preds = %1
  %7 = getelementptr inbounds i8, ptr %5, i64 8
  %8 = load ptr, ptr %7, align 8
  %.not.i.i = icmp ule ptr %8, %4
  %9 = getelementptr inbounds i8, ptr %5, i64 20
  %10 = load i32, ptr %9, align 4
  %11 = sext i32 %10 to i64
  %12 = getelementptr inbounds i8, ptr %8, i64 %11
  %13 = icmp ugt ptr %12, %4
  %14 = select i1 %.not.i.i, i1 %13, i1 false
  %15 = zext i1 %14 to i32
  br label %_ZN19TemplateInterpreter8containsEPh.exit

_ZN19TemplateInterpreter8containsEPh.exit:        ; preds = %1, %6
  %16 = phi i32 [ 0, %1 ], [ %15, %6 ]
  ret i32 %16
}